target datalayout = "e-m:e-p270:32:32-p271:32:32-p272:64:64-i64:64-i128:128-f80:128-n8:16:32:64-S128"
target triple = "x86_64-pc-linux-gnu"

%struct.ssl_st = type { i32, ptr, ptr, ptr, %struct.CRYPTO_REF_COUNT, ptr, %struct.crypto_ex_data_st }
%struct.CRYPTO_REF_COUNT = type { i32 }
%struct.crypto_ex_data_st = type { ptr, ptr }
%struct.ssl_connection_st = type { %struct.ssl_st, ptr, i32, ptr, ptr, ptr, i32, ptr, i32, i32, i32, i32, %struct.OSSL_TIME, %struct.OSSL_TIME, %struct.ossl_statem_st, i32, ptr, ptr, i64, i64, i64, %struct.ossl_quic_tls_callbacks_st, ptr, ptr, %struct.anon, ptr, ptr, ptr, i32, ptr, %struct.ssl_dane_st, ptr, ptr, ptr, ptr, i32, [64 x i8], [64 x i8], [64 x i8], [64 x i8], [64 x i8], [64 x i8], [64 x i8], [64 x i8], [64 x i8], [64 x i8], [64 x i8], [64 x i8], ptr, [64 x i8], i64, i32, i64, [32 x i8], ptr, ptr, ptr, i64, ptr, [32 x i8], i64, i32, ptr, ptr, i32, i32, ptr, ptr, ptr, ptr, ptr, i64, ptr, ptr, i64, i32, i32, i32, i64, i32, i32, i64, i64, i64, %struct.anon.1, ptr, i32, ptr, ptr, ptr, i32, ptr, ptr, ptr, i32, i32, i32, i32, ptr, i64, i32, ptr, %struct.srp_ctx_st, ptr, %struct.record_layer_st, ptr, ptr, ptr, ptr, i64, i32, i32, i32, i64, i64, i64, ptr, ptr, ptr, ptr, ptr, i64, ptr, i64, ptr, i64 }
%struct.OSSL_TIME = type { i64 }
%struct.ossl_statem_st = type { i32, i32, i32, i32, i32, i32, i32, i32, i32, i32, i32, i32, i32, ptr, ptr, ptr, i8 }
%struct.ossl_quic_tls_callbacks_st = type { ptr, ptr, ptr, ptr, ptr, ptr }
%struct.anon = type { i64, [32 x i8], [32 x i8], ptr, ptr, i32, i32, i32, i32, [2 x i8], i32, i32, i32, i32, %struct.anon.0, [64 x i8], i64, [64 x i8], i64, i32, i32, ptr, i64, ptr, i64, i32, i8, i8, i16, ptr, i16 }
%struct.anon.0 = type { [128 x i8], i64, [128 x i8], i64, i64, i32, ptr, ptr, [4 x ptr], [4 x i16], i64, i32, ptr, i64, ptr, i64, ptr, ptr, ptr, i32, i64, ptr, i32, ptr, i64, ptr, i64, ptr, i64, ptr, ptr, ptr, ptr, i64, i64, ptr, ptr, i32, i32, i32, i32 }
%struct.ssl_dane_st = type { ptr, ptr, ptr, ptr, ptr, i32, i32, i32, i64 }
%struct.anon.1 = type { [29 x i8], ptr, ptr, ptr, i32, ptr, i16, i32, %struct.anon.2, i32, i32, i64, ptr, i64, ptr, i64, ptr, i64, ptr, i64, ptr, i64, ptr, ptr, ptr, ptr, ptr, ptr, ptr, i64, ptr, i64, i32, i32, i32, i32, ptr, i64, i32, i8, i32, [4 x i32], i32, i8, i8, i8, i8 }
%struct.anon.2 = type { ptr, ptr, ptr, i64 }
%struct.srp_ctx_st = type { ptr, ptr, ptr, ptr, ptr, ptr, ptr, ptr, ptr, ptr, ptr, ptr, ptr, ptr, i32, i64 }
%struct.record_layer_st = type { ptr, ptr, ptr, ptr, ptr, ptr, ptr, ptr, i64, i32, i64, [4 x i8], i64, i64, i8, ptr, i32, ptr, ptr, ptr, i64, i64, i64, i64, [32 x %struct.tls_record_st] }
%struct.tls_record_st = type { ptr, i32, i8, ptr, ptr, i64, i64, i16, [8 x i8] }

@.str = private unnamed_addr constant [25 x i8] c"../openssl/ssl/ssl_rsa.c\00", align 1
@__func__.SSL_use_certificate = private unnamed_addr constant [20 x i8] c"SSL_use_certificate\00", align 1

; Function Attrs: nounwind uwtable
define i32 @SSL_use_certificate(ptr noundef %0, ptr noundef %1) #0 {
  %3 = alloca i32, align 4
  %4 = alloca ptr, align 8
  %5 = alloca ptr, align 8
  %6 = alloca i32, align 4
  %7 = alloca ptr, align 8
  %8 = alloca i32, align 4
  store ptr %0, ptr %4, align 8, !tbaa !3
  store ptr %1, ptr %5, align 8, !tbaa !8
  call void @llvm.lifetime.start.p0(i64 4, ptr %6) #6
  call void @llvm.lifetime.start.p0(i64 8, ptr %7) #6
  %9 = load ptr, ptr %4, align 8, !tbaa !3
  %10 = icmp eq ptr %9, null
  br i1 %10, label %11, label %12

11:                                               ; preds = %2
  br label %33

12:                                               ; preds = %2
  %13 = load ptr, ptr %4, align 8, !tbaa !3
  %14 = getelementptr inbounds nuw %struct.ssl_st, ptr %13, i32 0, i32 0
  %15 = load i32, ptr %14, align 8, !tbaa !10
  %16 = icmp eq i32 %15, 0
  br i1 %16, label %17, label %19

17:                                               ; preds = %12
  %18 = load ptr, ptr %4, align 8, !tbaa !3
  br label %31

19:                                               ; preds = %12
  %20 = load ptr, ptr %4, align 8, !tbaa !3
  %21 = getelementptr inbounds nuw %struct.ssl_st, ptr %20, i32 0, i32 0
  %22 = load i32, ptr %21, align 8, !tbaa !10
  %23 = and i32 %22, 128
  %24 = icmp ne i32 %23, 0
  br i1 %24, label %25, label %28

25:                                               ; preds = %19
  %26 = load ptr, ptr %4, align 8, !tbaa !3
  %27 = call ptr @ossl_quic_obj_get0_handshake_layer(ptr noundef %26)
  br label %29

28:                                               ; preds = %19
  br label %29

29:                                               ; preds = %28, %25
  %30 = phi ptr [ %27, %25 ], [ null, %28 ]
  br label %31

31:                                               ; preds = %29, %17
  %32 = phi ptr [ %18, %17 ], [ %30, %29 ]
  br label %33

33:                                               ; preds = %31, %11
  %34 = phi ptr [ null, %11 ], [ %32, %31 ]
  store ptr %34, ptr %7, align 8, !tbaa !19
  %35 = load ptr, ptr %7, align 8, !tbaa !19
  %36 = icmp eq ptr %35, null
  br i1 %36, label %37, label %38

37:                                               ; preds = %33
  store i32 0, ptr %3, align 4
  store i32 1, ptr %8, align 4
  br label %60

38:                                               ; preds = %33
  %39 = load ptr, ptr %5, align 8, !tbaa !8
  %40 = icmp eq ptr %39, null
  br i1 %40, label %41, label %42

41:                                               ; preds = %38
  call void @ERR_new()
  call void @ERR_set_debug(ptr noundef @.str, i32 noundef 41, ptr noundef @__func__.SSL_use_certificate)
  call void (i32, i32, ptr, ...) @ERR_set_error(i32 noundef 20, i32 noundef 786690, ptr noundef null)
  store i32 0, ptr %3, align 4
  store i32 1, ptr %8, align 4
  br label %60

42:                                               ; preds = %38
  %43 = load ptr, ptr %7, align 8, !tbaa !19
  %44 = load ptr, ptr %5, align 8, !tbaa !8
  %45 = call i32 @ssl_security_cert(ptr noundef %43, ptr noundef null, ptr noundef %44, i32 noundef 0, i32 noundef 1)
  store i32 %45, ptr %6, align 4, !tbaa !21
  %46 = load i32, ptr %6, align 4, !tbaa !21
  %47 = icmp ne i32 %46, 1
  br i1 %47, label %48, label %50

48:                                               ; preds = %42
  call void @ERR_new()
  call void @ERR_set_debug(ptr noundef @.str, i32 noundef 47, ptr noundef @__func__.SSL_use_certificate)
  %49 = load i32, ptr %6, align 4, !tbaa !21
  call void (i32, i32, ptr, ...) @ERR_set_error(i32 noundef 20, i32 noundef %49, ptr noundef null)
  store i32 0, ptr %3, align 4
  store i32 1, ptr %8, align 4
  br label %60

50:                                               ; preds = %42
  %51 = load ptr, ptr %7, align 8, !tbaa !19
  %52 = getelementptr inbounds nuw %struct.ssl_connection_st, ptr %51, i32 0, i32 48
  %53 = load ptr, ptr %52, align 8, !tbaa !22
  %54 = load ptr, ptr %5, align 8, !tbaa !8
  %55 = load ptr, ptr %7, align 8, !tbaa !19
  %56 = getelementptr inbounds nuw %struct.ssl_connection_st, ptr %55, i32 0, i32 0
  %57 = getelementptr inbounds nuw %struct.ssl_st, ptr %56, i32 0, i32 1
  %58 = load ptr, ptr %57, align 8, !tbaa !74
  %59 = call i32 @ssl_set_cert(ptr noundef %53, ptr noundef %54, ptr noundef %58)
  store i32 %59, ptr %3, align 4
  store i32 1, ptr %8, align 4
  br label %60

60:                                               ; preds = %50, %48, %41, %37
  call void @llvm.lifetime.end.p0(i64 8, ptr %7) #6
  call void @llvm.lifetime.end.p0(i64 4, ptr %6) #6
  %61 = load i32, ptr %3, align 4
  ret i32 %61
}